target datalayout = "e-m:e-p270:32:32-p271:32:32-p272:64:64-i64:64-i128:128-f80:128-n8:16:32:64-S128"
target triple = "x86_64-unknown-linux-gnu"

%class.symbol = type { ptr }
%class.params_ref = type { ptr }
%class.ptr_vector.57 = type { %class.vector.58 }
%class.vector.58 = type { ptr }
%class.ast_context_params = type { %class.context_params, ptr }
%class.context_params = type { i32, i32, %"class.std::__cxx11::basic_string", %"class.std::__cxx11::basic_string", i8, i8, i8, i8, i8, i8, i8, i8, i8, i8, i8, %"class.std::__cxx11::basic_string" }
%"class.std::__cxx11::basic_string" = type { %"struct.std::__cxx11::basic_string<char>::_Alloc_hider", i64, %union.anon }
%"struct.std::__cxx11::basic_string<char>::_Alloc_hider" = type { ptr }
%union.anon = type { i64, [8 x i8] }
%class.svector.4 = type { %class.vector.5 }
%class.vector.5 = type { ptr }
%class.cmd_context = type { %class.progress_callback, %class.tactic_manager, %class.ast_printer_context, %class.ast_context_params, i8, %class.symbol, i8, i8, i8, i32, i8, i8, i8, i32, i8, i8, i8, i8, %class.scoped_ptr.83, %class.ref_vector_core.84, ptr, i8, i8, ptr, ptr, %class.check_logic, %class.stream_ref, %class.stream_ref, %class.map.87, %class.map.91, %class.scoped_ptr_vector, %class.map.97, %class.map.101, %class.map.105, %class.obj_map.109, %class.map.114, %class.map.118, %class.svector.122, %class.svector.4, %class.svector.4, %class.ptr_vector.124, %class.ptr_vector.124, %class.ptr_vector.57, %"class.std::vector", %class.ptr_vector.57, %class.svector.129, %class.scoped_ptr.131, %class.ref, %class.ref.132, %class.ref.133, %class.stopwatch, %class.scoped_ptr.134, %class.scoped_ptr.135 }
%class.progress_callback = type { ptr }
%class.tactic_manager = type { %class.map.65, %class.map.69, %class.map.73, %class.ptr_vector.77, %class.ptr_vector.79, %class.ptr_vector.81 }
%class.map.65 = type { %class.table2map.66 }
%class.table2map.66 = type { %class.core_hashtable.67 }
%class.core_hashtable.67 = type <{ ptr, i32, i32, i32, [4 x i8] }>
%class.map.69 = type { %class.table2map.70 }
%class.table2map.70 = type { %class.core_hashtable.71 }
%class.core_hashtable.71 = type <{ ptr, i32, i32, i32, [4 x i8] }>
%class.map.73 = type { %class.table2map.74 }
%class.table2map.74 = type { %class.core_hashtable.75 }
%class.core_hashtable.75 = type <{ ptr, i32, i32, i32, [4 x i8] }>
%class.ptr_vector.77 = type { %class.vector.78 }
%class.vector.78 = type { ptr }
%class.ptr_vector.79 = type { %class.vector.80 }
%class.vector.80 = type { ptr }
%class.ptr_vector.81 = type { %class.vector.82 }
%class.vector.82 = type { ptr }
%class.ast_printer_context = type { %class.ast_printer }
%class.ast_printer = type { ptr }
%class.scoped_ptr.83 = type { ptr }
%class.ref_vector_core.84 = type { %class.ptr_vector.85 }
%class.ptr_vector.85 = type { %class.vector.86 }
%class.vector.86 = type { ptr }
%class.check_logic = type { ptr }
%class.stream_ref = type <{ %"class.std::__cxx11::basic_string", ptr, %"class.std::__cxx11::basic_string", ptr, i8, [7 x i8] }>
%class.map.87 = type { %class.table2map.88 }
%class.table2map.88 = type { %class.core_hashtable.89 }
%class.core_hashtable.89 = type <{ ptr, i32, i32, i32, [4 x i8] }>
%class.map.91 = type { %class.table2map.92 }
%class.table2map.92 = type { %class.core_hashtable.93 }
%class.core_hashtable.93 = type <{ ptr, i32, i32, i32, [4 x i8] }>
%class.scoped_ptr_vector = type { %class.ptr_vector.95 }
%class.ptr_vector.95 = type { %class.vector.96 }
%class.vector.96 = type { ptr }
%class.map.97 = type { %class.table2map.98 }
%class.table2map.98 = type { %class.core_hashtable.99 }
%class.core_hashtable.99 = type <{ ptr, i32, i32, i32, [4 x i8] }>
%class.map.101 = type { %class.table2map.102 }
%class.table2map.102 = type { %class.core_hashtable.103 }
%class.core_hashtable.103 = type <{ ptr, i32, i32, i32, [4 x i8] }>
%class.map.105 = type { %class.table2map.106 }
%class.table2map.106 = type { %class.core_hashtable.107 }
%class.core_hashtable.107 = type <{ ptr, i32, i32, i32, [4 x i8] }>
%class.obj_map.109 = type { %class.core_hashtable.110 }
%class.core_hashtable.110 = type <{ ptr, i32, i32, i32, [4 x i8] }>
%class.map.114 = type { %class.table2map.115 }
%class.table2map.115 = type { %class.core_hashtable.116 }
%class.core_hashtable.116 = type <{ ptr, i32, i32, i32, [4 x i8] }>
%class.map.118 = type { %class.table2map.119 }
%class.table2map.119 = type { %class.core_hashtable.120 }
%class.core_hashtable.120 = type <{ ptr, i32, i32, i32, [4 x i8] }>
%class.svector.122 = type { %class.vector.123 }
%class.vector.123 = type { ptr }
%class.ptr_vector.124 = type { %class.vector.125 }
%class.vector.125 = type { ptr }
%"class.std::vector" = type { %"struct.std::_Vector_base" }
%"struct.std::_Vector_base" = type { %"struct.std::_Vector_base<std::__cxx11::basic_string<char>, std::allocator<std::__cxx11::basic_string<char>>>::_Vector_impl" }
%"struct.std::_Vector_base<std::__cxx11::basic_string<char>, std::allocator<std::__cxx11::basic_string<char>>>::_Vector_impl" = type { %"struct.std::_Vector_base<std::__cxx11::basic_string<char>, std::allocator<std::__cxx11::basic_string<char>>>::_Vector_impl_data" }
%"struct.std::_Vector_base<std::__cxx11::basic_string<char>, std::allocator<std::__cxx11::basic_string<char>>>::_Vector_impl_data" = type { ptr, ptr, ptr }
%class.svector.129 = type { %class.vector.130 }
%class.vector.130 = type { ptr }
%class.scoped_ptr.131 = type { ptr }
%class.ref = type { ptr }
%class.ref.132 = type { ptr }
%class.ref.133 = type { ptr }
%class.stopwatch = type <{ %"class.std::chrono::time_point", %"class.std::chrono::duration", i8, [7 x i8] }>
%"class.std::chrono::time_point" = type { %"class.std::chrono::duration" }
%"class.std::chrono::duration" = type { i64 }
%class.scoped_ptr.134 = type { ptr }
%class.scoped_ptr.135 = type { ptr }

@.str.84 = private unnamed_addr constant [12 x i8] c"declare-fun\00", align 1

; Function Attrs: mustprogress uwtable
define linkonce_odr hidden void @_Z7deallocIN11cmd_context6pp_envEEvPT_(ptr noundef %ptr) #4 comdat {
entry:
  %ptr.addr = alloca ptr, align 8
  store ptr %ptr, ptr %ptr.addr, align 8
  %0 = load ptr, ptr %ptr.addr, align 8
  %cmp = icmp eq ptr %0, null
  br i1 %cmp, label %if.then, label %if.end

if.then:                                          ; preds = %entry
  br label %return

if.end:                                           ; preds = %entry
  %1 = load ptr, ptr %ptr.addr, align 8
  %vtable = load ptr, ptr %1, align 8
  %vfn = getelementptr inbounds ptr, ptr %vtable, i64 0
  %2 = load ptr, ptr %vfn, align 8
  call void %2(ptr noundef nonnull align 8 dereferenceable(640) %1) #3
  %3 = load ptr, ptr %ptr.addr, align 8
  call void @_ZN6memory10deallocateEPv(ptr noundef %3)
  br label %return

return:                                           ; preds = %if.end, %if.then
  ret void
}

; Function Attrs: mustprogress uwtable
define linkonce_odr hidden noundef nonnull align 8 dereferenceable(8) ptr @_ZN10scoped_ptrIN11cmd_context6pp_envEEaSEPS1_(ptr noundef nonnull align 8 dereferenceable(8) %this, ptr noundef %n) #4 comdat align 2 {
entry:
  %this.addr = alloca ptr, align 8
  %n.addr = alloca ptr, align 8
  store ptr %this, ptr %this.addr, align 8
  store ptr %n, ptr %n.addr, align 8
  %this1 = load ptr, ptr %this.addr, align 8
  %m_ptr = getelementptr inbounds %class.scoped_ptr.135, ptr %this1, i32 0, i32 0
  %0 = load ptr, ptr %m_ptr, align 8
  %1 = load ptr, ptr %n.addr, align 8
  %cmp = icmp ne ptr %0, %1
  br i1 %cmp, label %if.then, label %if.end

if.then:                                          ; preds = %entry
  %m_ptr2 = getelementptr inbounds %class.scoped_ptr.135, ptr %this1, i32 0, i32 0
  %2 = load ptr, ptr %m_ptr2, align 8
  call void @_Z7deallocIN11cmd_context6pp_envEEvPT_(ptr noundef %2)
  %3 = load ptr, ptr %n.addr, align 8
  %m_ptr3 = getelementptr inbounds %class.scoped_ptr.135, ptr %this1, i32 0, i32 0
  store ptr %3, ptr %m_ptr3, align 8
  br label %if.end

if.end:                                           ; preds = %if.then, %entry
  ret ptr %this1
}

; Function Attrs: mustprogress nounwind uwtable
define linkonce_odr hidden noundef ptr @_ZNK10scoped_ptrIN11cmd_context6pp_envEE3getEv(ptr noundef nonnull align 8 dereferenceable(8) %this) #5 comdat align 2 {
entry:
  %this.addr = alloca ptr, align 8
  store ptr %this, ptr %this.addr, align 8
  %this1 = load ptr, ptr %this.addr, align 8
  %m_ptr = getelementptr inbounds %class.scoped_ptr.135, ptr %this1, i32 0, i32 0
  %0 = load ptr, ptr %m_ptr, align 8
  ret ptr %0
}

; Function Attrs: mustprogress nounwind uwtable
define linkonce_odr hidden void @_ZN10params_refC2Ev(ptr noundef nonnull align 8 dereferenceable(8) %this) unnamed_addr #5 comdat align 2 {
entry:
  %this.addr = alloca ptr, align 8
  store ptr %this, ptr %this.addr, align 8
  %this1 = load ptr, ptr %this.addr, align 8
  %m_params = getelementptr inbounds %class.params_ref, ptr %this1, i32 0, i32 0
  store ptr null, ptr %m_params, align 8
  ret void
}

; Function Attrs: mustprogress uwtable
define hidden noundef nonnull align 8 dereferenceable(640) ptr @_ZNK11cmd_context10get_pp_envEv(ptr noundef nonnull align 8 dereferenceable(872) %this) #4 align 2 {
entry:
  %this.addr = alloca ptr, align 8
  store ptr %this, ptr %this.addr, align 8
  %this1 = load ptr, ptr %this.addr, align 8
  %m_pp_env = getelementptr inbounds %class.cmd_context, ptr %this1, i32 0, i32 52
  %call = call noundef ptr @_ZNK10scoped_ptrIN11cmd_context6pp_envEE3getEv(ptr noundef nonnull align 8 dereferenceable(8) %m_pp_env)
  %cmp = icmp eq ptr %call, null
  br i1 %cmp, label %if.then, label %if.end

if.then:                                          ; preds = %entry
  %call2 = call noalias noundef ptr @_ZN6memory8allocateEm(i64 noundef 640)
  call void @_ZN11cmd_context6pp_envC2ERS_(ptr noundef nonnull align 8 dereferenceable(640) %call2, ptr noundef nonnull align 8 dereferenceable(872) %this1)
  %m_pp_env3 = getelementptr inbounds %class.cmd_context, ptr %this1, i32 0, i32 52
  %call4 = call noundef nonnull align 8 dereferenceable(8) ptr @_ZN10scoped_ptrIN11cmd_context6pp_envEEaSEPS1_(ptr noundef nonnull align 8 dereferenceable(8) %m_pp_env3, ptr noundef %call2)
  br label %if.end

if.end:                                           ; preds = %if.then, %entry
  %m_pp_env5 = getelementptr inbounds %class.cmd_context, ptr %this1, i32 0, i32 52
  %call6 = call noundef ptr @_ZNK10scoped_ptrIN11cmd_context6pp_envEE3getEv(ptr noundef nonnull align 8 dereferenceable(8) %m_pp_env5)
  ret ptr %call6
}

; Function Attrs: mustprogress uwtable
define hidden void @_ZNK11cmd_context2ppEP9func_declR7obj_refI3app11ast_managerE(ptr noundef nonnull align 8 dereferenceable(872) %this, ptr noundef %f, ptr noundef nonnull align 8 dereferenceable(16) %r) unnamed_addr #4 align 2 personality ptr @__gxx_personality_v0 {
entry:
  %this.addr = alloca ptr, align 8
  %f.addr = alloca ptr, align 8
  %r.addr = alloca ptr, align 8
  %ref.tmp = alloca %class.params_ref, align 8
  %exn.slot = alloca ptr, align 8
  %ehselector.slot = alloca i32, align 4
  store ptr %this, ptr %this.addr, align 8
  store ptr %f, ptr %f.addr, align 8
  store ptr %r, ptr %r.addr, align 8
  %this1 = load ptr, ptr %this.addr, align 8
  %0 = load ptr, ptr %f.addr, align 8
  %call = call noundef nonnull align 8 dereferenceable(640) ptr @_ZNK11cmd_context10get_pp_envEv(ptr noundef nonnull align 8 dereferenceable(872) %this1)
  call void @_ZN10params_refC2Ev(ptr noundef nonnull align 8 dereferenceable(8) %ref.tmp)
  %1 = load ptr, ptr %r.addr, align 8
  invoke void @_Z14mk_smt2_formatP9func_declR19smt2_pp_environmentRK10params_refR7obj_refI3app11ast_managerEPKc(ptr noundef %0, ptr noundef nonnull align 8 dereferenceable(56) %call, ptr noundef nonnull align 8 dereferenceable(8) %ref.tmp, ptr noundef nonnull align 8 dereferenceable(16) %1, ptr noundef @.str.84)
          to label %invoke.cont unwind label %lpad

invoke.cont:                                      ; preds = %entry
  call void @_ZN10params_refD1Ev(ptr noundef nonnull align 8 dereferenceable(8) %ref.tmp) #3
  ret void

lpad:                                             ; preds = %entry
  %2 = landingpad { ptr, i32 }
          cleanup
  %3 = extractvalue { ptr, i32 } %2, 0
  store ptr %3, ptr %exn.slot, align 8
  %4 = extractvalue { ptr, i32 } %2, 1
  store i32 %4, ptr %ehselector.slot, align 4
  call void @_ZN10params_refD1Ev(ptr noundef nonnull align 8 dereferenceable(8) %ref.tmp) #3
  br label %eh.resume

eh.resume:                                        ; preds = %lpad
  %exn = load ptr, ptr %exn.slot, align 8
  %sel = load i32, ptr %ehselector.slot, align 4
  %lpad.val = insertvalue { ptr, i32 } poison, ptr %exn, 0
  %lpad.val2 = insertvalue { ptr, i32 } %lpad.val, i32 %sel, 1
  resume { ptr, i32 } %lpad.val2
}