; Function Attrs: mustprogress uwtable
define hidden void @_ZNK11cmd_context2ppEP9func_declR7obj_refI3app11ast_managerE(ptr noundef nonnull align 8 dereferenceable(872) %this, ptr noundef %f, ptr noundef nonnull align 8 dereferenceable(16) %r) unnamed_addr #4 align 2 personality ptr @__gxx_personality_v0 {
entry:
  %ref.tmp = alloca %class.params_ref, align 8
  %m_pp_env.i = getelementptr inbounds i8, ptr %this, i64 864
  %0 = load ptr, ptr %m_pp_env.i, align 8
  %cmp.i = icmp eq ptr %0, null
  br i1 %cmp.i, label %if.then.i, label %_ZNK11cmd_context10get_pp_envEv.exit

if.then.i:                                        ; preds = %entry
  %call2.i = tail call noalias noundef ptr @_ZN6memory8allocateEm(i64 noundef 640)
  tail call void @_ZN11cmd_context6pp_envC2ERS_(ptr noundef nonnull align 8 dereferenceable(640) %call2.i, ptr noundef nonnull align 8 dereferenceable(872) %this)
  %1 = load ptr, ptr %m_pp_env.i, align 8
  %cmp.not.i.i = icmp eq ptr %1, %call2.i
  br i1 %cmp.not.i.i, label %_ZNK11cmd_context10get_pp_envEv.exit, label %if.then.i.i

if.then.i.i:                                      ; preds = %if.then.i
  %cmp.i.i.i = icmp eq ptr %1, null
  br i1 %cmp.i.i.i, label %_Z7deallocIN11cmd_context6pp_envEEvPT_.exit.i.i, label %if.end.i.i.i

if.end.i.i.i:                                     ; preds = %if.then.i.i
  %vtable.i.i.i = load ptr, ptr %1, align 8
  %2 = load ptr, ptr %vtable.i.i.i, align 8
  tail call void %2(ptr noundef nonnull align 8 dereferenceable(640) %1) #25
  tail call void @_ZN6memory10deallocateEPv(ptr noundef nonnull %1)
  br label %_Z7deallocIN11cmd_context6pp_envEEvPT_.exit.i.i

_Z7deallocIN11cmd_context6pp_envEEvPT_.exit.i.i:  ; preds = %if.end.i.i.i, %if.then.i.i
  store ptr %call2.i, ptr %m_pp_env.i, align 8
  br label %_ZNK11cmd_context10get_pp_envEv.exit

_ZNK11cmd_context10get_pp_envEv.exit:             ; preds = %entry, %if.then.i, %_Z7deallocIN11cmd_context6pp_envEEvPT_.exit.i.i
  %3 = phi ptr [ %call2.i, %_Z7deallocIN11cmd_context6pp_envEEvPT_.exit.i.i ], [ %call2.i, %if.then.i ], [ %0, %entry ]
  store ptr null, ptr %ref.tmp, align 8
  invoke void @_Z14mk_smt2_formatP9func_declR19smt2_pp_environmentRK10params_refR7obj_refI3app11ast_managerEPKc(ptr noundef %f, ptr noundef nonnull align 8 dereferenceable(56) %3, ptr noundef nonnull align 8 dereferenceable(8) %ref.tmp, ptr noundef nonnull align 8 dereferenceable(16) %r, ptr noundef nonnull @.str.84)
          to label %invoke.cont unwind label %lpad

invoke.cont:                                      ; preds = %_ZNK11cmd_context10get_pp_envEv.exit
  call void @_ZN10params_refD1Ev(ptr noundef nonnull align 8 dereferenceable(8) %ref.tmp) #25
  ret void

lpad:                                             ; preds = %_ZNK11cmd_context10get_pp_envEv.exit
  %4 = landingpad { ptr, i32 }
          cleanup
  call void @_ZN10params_refD1Ev(ptr noundef nonnull align 8 dereferenceable(8) %ref.tmp) #25
  resume { ptr, i32 } %4
}